target datalayout = "e-m:e-p270:32:32-p271:32:32-p272:64:64-i64:64-i128:128-f80:128-n8:16:32:64-S128"
target triple = "x86_64-pc-linux-gnu"

%struct.ObjectAddress = type { i32, i32, i32 }

@creating_extension = external global i8, align 1
@CurrentExtensionObject = external global i32, align 4
@.str = private unnamed_addr constant [41 x i8] c"%s is already a member of extension \22%s\22\00", align 1
@.str.1 = private unnamed_addr constant [12 x i8] c"pg_depend.c\00", align 1
@__func__.recordDependencyOnCurrentExtension = private unnamed_addr constant [35 x i8] c"recordDependencyOnCurrentExtension\00", align 1
@.str.2 = private unnamed_addr constant [37 x i8] c"%s is not a member of extension \22%s\22\00", align 1
@.str.3 = private unnamed_addr constant [71 x i8] c"An extension is not allowed to replace an object that it does not own.\00", align 1

; Function Attrs: nounwind uwtable
define dso_local void @recordDependencyOn(ptr noundef %0, ptr noundef %1, i32 noundef %2) #0 {
  %4 = alloca ptr, align 8
  %5 = alloca ptr, align 8
  %6 = alloca i32, align 4
  store ptr %0, ptr %4, align 8
  store ptr %1, ptr %5, align 8
  store i32 %2, ptr %6, align 4
  %7 = load ptr, ptr %4, align 8
  %8 = load ptr, ptr %5, align 8
  %9 = load i32, ptr %6, align 4
  call void @recordMultipleDependencies(ptr noundef %7, ptr noundef %8, i32 noundef 1, i32 noundef %9)
  ret void
}

; Function Attrs: nounwind uwtable
define dso_local void @recordDependencyOnCurrentExtension(ptr noundef %0, i1 noundef zeroext %1) #0 {
  %3 = alloca ptr, align 8
  %4 = alloca i8, align 1
  %5 = alloca %struct.ObjectAddress, align 4
  %6 = alloca i32, align 4
  %7 = alloca i32, align 4
  store ptr %0, ptr %3, align 8
  %8 = zext i1 %1 to i8
  store i8 %8, ptr %4, align 1
  %9 = load i8, ptr @creating_extension, align 1, !range !7, !noundef !8
  %10 = trunc i8 %9 to i1
  br i1 %10, label %11, label %74

11:                                               ; preds = %2
  call void @llvm.lifetime.start.p0(i64 12, ptr %5) #6
  %12 = load i8, ptr %4, align 1, !range !7, !noundef !8
  %13 = trunc i8 %12 to i1
  br i1 %13, label %14, label %65

14:                                               ; preds = %11
  call void @llvm.lifetime.start.p0(i64 4, ptr %6) #6
  %15 = load ptr, ptr %3, align 8
  %16 = getelementptr inbounds nuw %struct.ObjectAddress, ptr %15, i32 0, i32 0
  %17 = load i32, ptr %16, align 4
  %18 = load ptr, ptr %3, align 8
  %19 = getelementptr inbounds nuw %struct.ObjectAddress, ptr %18, i32 0, i32 1
  %20 = load i32, ptr %19, align 4
  %21 = call i32 @getExtensionOfObject(i32 noundef %17, i32 noundef %20)
  store i32 %21, ptr %6, align 4
  %22 = load i32, ptr %6, align 4
  %23 = icmp ne i32 %22, 0
  br i1 %23, label %24, label %45

24:                                               ; preds = %14
  %25 = load i32, ptr %6, align 4
  %26 = load i32, ptr @CurrentExtensionObject, align 4
  %27 = icmp eq i32 %25, %26
  br i1 %27, label %28, label %29

28:                                               ; preds = %24
  store i32 1, ptr %7, align 4
  br label %62

29:                                               ; preds = %24
  br label %30

30:                                               ; preds = %29
  br i1 true, label %31, label %33

31:                                               ; preds = %30
  %32 = call zeroext i1 @errstart_cold(i32 noundef 21, ptr noundef null) #7
  br i1 %32, label %35, label %42

33:                                               ; preds = %30
  %34 = call zeroext i1 @errstart(i32 noundef 21, ptr noundef null)
  br i1 %34, label %35, label %42

35:                                               ; preds = %33, %31
  %36 = call i32 @errcode(i32 noundef 325)
  %37 = load ptr, ptr %3, align 8
  %38 = call ptr @getObjectDescription(ptr noundef %37, i1 noundef zeroext false)
  %39 = load i32, ptr %6, align 4
  %40 = call ptr @get_extension_name(i32 noundef %39)
  %41 = call i32 (ptr, ...) @errmsg(ptr noundef @.str, ptr noundef %38, ptr noundef %40)
  call void @errfinish(ptr noundef @.str.1, i32 noundef 225, ptr noundef @__func__.recordDependencyOnCurrentExtension)
  br label %42

42:                                               ; preds = %35, %33, %31
  unreachable

43:                                               ; No predecessors!
  br label %44

44:                                               ; preds = %43
  br label %45

45:                                               ; preds = %44, %14
  br label %46

46:                                               ; preds = %45
  br i1 true, label %47, label %49

47:                                               ; preds = %46
  %48 = call zeroext i1 @errstart_cold(i32 noundef 21, ptr noundef null) #7
  br i1 %48, label %51, label %59

49:                                               ; preds = %46
  %50 = call zeroext i1 @errstart(i32 noundef 21, ptr noundef null)
  br i1 %50, label %51, label %59

51:                                               ; preds = %49, %47
  %52 = call i32 @errcode(i32 noundef 325)
  %53 = load ptr, ptr %3, align 8
  %54 = call ptr @getObjectDescription(ptr noundef %53, i1 noundef zeroext false)
  %55 = load i32, ptr @CurrentExtensionObject, align 4
  %56 = call ptr @get_extension_name(i32 noundef %55)
  %57 = call i32 (ptr, ...) @errmsg(ptr noundef @.str.2, ptr noundef %54, ptr noundef %56)
  %58 = call i32 (ptr, ...) @errdetail(ptr noundef @.str.3)
  call void @errfinish(ptr noundef @.str.1, i32 noundef 233, ptr noundef @__func__.recordDependencyOnCurrentExtension)
  br label %59

59:                                               ; preds = %51, %49, %47
  unreachable

60:                                               ; No predecessors!
  br label %61

61:                                               ; preds = %60
  store i32 0, ptr %7, align 4
  br label %62

62:                                               ; preds = %61, %28
  call void @llvm.lifetime.end.p0(i64 4, ptr %6) #6
  %63 = load i32, ptr %7, align 4
  switch i32 %63, label %71 [
    i32 0, label %64
  ]

64:                                               ; preds = %62
  br label %65

65:                                               ; preds = %64, %11
  %66 = getelementptr inbounds nuw %struct.ObjectAddress, ptr %5, i32 0, i32 0
  store i32 3079, ptr %66, align 4
  %67 = load i32, ptr @CurrentExtensionObject, align 4
  %68 = getelementptr inbounds nuw %struct.ObjectAddress, ptr %5, i32 0, i32 1
  store i32 %67, ptr %68, align 4
  %69 = getelementptr inbounds nuw %struct.ObjectAddress, ptr %5, i32 0, i32 2
  store i32 0, ptr %69, align 4
  %70 = load ptr, ptr %3, align 8
  call void @recordDependencyOn(ptr noundef %70, ptr noundef %5, i32 noundef 101)
  store i32 0, ptr %7, align 4
  br label %71

71:                                               ; preds = %65, %62
  call void @llvm.lifetime.end.p0(i64 12, ptr %5) #6
  %72 = load i32, ptr %7, align 4
  switch i32 %72, label %75 [
    i32 0, label %73
    i32 1, label %74
  ]

73:                                               ; preds = %71
  br label %74

74:                                               ; preds = %71, %73, %2
  ret void

75:                                               ; preds = %71
  unreachable
}