; Function Attrs: nounwind uwtable
define dso_local void @recordDependencyOnCurrentExtension(ptr noundef %0, i1 noundef zeroext %1) local_unnamed_addr #0 {
  %3 = alloca %struct.ObjectAddress, align 4
  %4 = load i8, ptr @creating_extension, align 1, !range !7, !noundef !8
  %5 = trunc nuw i8 %4 to i1
  br i1 %5, label %6, label %34

6:                                                ; preds = %2
  call void @llvm.lifetime.start.p0(i64 12, ptr nonnull %3) #7
  br i1 %1, label %7, label %29

7:                                                ; preds = %6
  %8 = load i32, ptr %0, align 4
  %9 = getelementptr inbounds nuw i8, ptr %0, i64 4
  %10 = load i32, ptr %9, align 4
  %11 = tail call i32 @getExtensionOfObject(i32 noundef %8, i32 noundef %10)
  %.not = icmp eq i32 %11, 0
  br i1 %.not, label %21, label %12

12:                                               ; preds = %7
  %13 = load i32, ptr @CurrentExtensionObject, align 4
  %14 = icmp eq i32 %11, %13
  br i1 %14, label %33, label %15

15:                                               ; preds = %12
  %16 = tail call zeroext i1 @errstart_cold(i32 noundef 21, ptr noundef null) #8
  tail call void @llvm.assume(i1 %16)
  %17 = tail call i32 @errcode(i32 noundef 325) #7
  %18 = tail call ptr @getObjectDescription(ptr noundef nonnull %0, i1 noundef zeroext false) #7
  %19 = tail call ptr @get_extension_name(i32 noundef %11) #7
  %20 = tail call i32 (ptr, ...) @errmsg(ptr noundef nonnull @.str, ptr noundef %18, ptr noundef %19) #7
  tail call void @errfinish(ptr noundef nonnull @.str.1, i32 noundef 225, ptr noundef nonnull @__func__.recordDependencyOnCurrentExtension) #7
  unreachable

21:                                               ; preds = %7
  %22 = tail call zeroext i1 @errstart_cold(i32 noundef 21, ptr noundef null) #8
  tail call void @llvm.assume(i1 %22)
  %23 = tail call i32 @errcode(i32 noundef 325) #7
  %24 = tail call ptr @getObjectDescription(ptr noundef nonnull %0, i1 noundef zeroext false) #7
  %25 = load i32, ptr @CurrentExtensionObject, align 4
  %26 = tail call ptr @get_extension_name(i32 noundef %25) #7
  %27 = tail call i32 (ptr, ...) @errmsg(ptr noundef nonnull @.str.2, ptr noundef %24, ptr noundef %26) #7
  %28 = tail call i32 (ptr, ...) @errdetail(ptr noundef nonnull @.str.3) #7
  tail call void @errfinish(ptr noundef nonnull @.str.1, i32 noundef 233, ptr noundef nonnull @__func__.recordDependencyOnCurrentExtension) #7
  unreachable

29:                                               ; preds = %6
  store i32 3079, ptr %3, align 4
  %30 = load i32, ptr @CurrentExtensionObject, align 4
  %31 = getelementptr inbounds nuw i8, ptr %3, i64 4
  store i32 %30, ptr %31, align 4
  %32 = getelementptr inbounds nuw i8, ptr %3, i64 8
  store i32 0, ptr %32, align 4
  call void @recordMultipleDependencies(ptr noundef readonly %0, ptr noundef nonnull readonly %3, i32 noundef 1, i32 noundef 101)
  br label %33

33:                                               ; preds = %12, %29
  call void @llvm.lifetime.end.p0(i64 12, ptr nonnull %3) #7
  br label %34

34:                                               ; preds = %33, %2
  ret void
}